; Function Attrs: mustprogress uwtable
define void @_ZN15DragDropToolBar13dragMoveEventEP14QDragMoveEvent(ptr noundef nonnull align 8 dereferenceable(52) %0, ptr noundef %1) unnamed_addr #0 align 2 personality ptr @__gxx_personality_v0 {
  %3 = alloca %class.QPoint, align 8
  %4 = alloca i8, align 1
  %5 = alloca %class.QVariant, align 8
  %.not = icmp eq ptr %1, null
  br i1 %.not, label %51, label %6

6:                                                ; preds = %2
  %7 = getelementptr inbounds i8, ptr %1, i64 56
  %8 = load ptr, ptr %7, align 8
  %.not23 = icmp eq ptr %8, null
  br i1 %.not23, label %51, label %9

9:                                                ; preds = %6
  %10 = tail call noundef ptr @_ZNK11QMetaObject4castEPK7QObject(ptr noundef nonnull align 8 dereferenceable(56) @_ZN20ToolbarEntryMimeData16staticMetaObjectE, ptr noundef nonnull %8)
  %.not24 = icmp eq ptr %10, null
  br i1 %.not24, label %37, label %11

11:                                               ; preds = %9
  %12 = getelementptr inbounds i8, ptr %1, i64 16
  %.sroa.0.0.copyload.i = load double, ptr %12, align 8
  %.sroa.2.0..sroa_idx.i = getelementptr inbounds i8, ptr %1, i64 24
  %.sroa.2.0.copyload.i = load double, ptr %.sroa.2.0..sroa_idx.i, align 8
  %13 = tail call double @llvm.copysign.f64(double 5.000000e-01, double %.sroa.0.0.copyload.i)
  %14 = fadd double %.sroa.0.0.copyload.i, %13
  %15 = fptosi double %14 to i32
  %16 = tail call double @llvm.copysign.f64(double 5.000000e-01, double %.sroa.2.0.copyload.i)
  %17 = fadd double %.sroa.2.0.copyload.i, %16
  %18 = fptosi double %17 to i32
  %.sroa.2.0.insert.ext.i = zext i32 %18 to i64
  %.sroa.2.0.insert.shift.i = shl nuw i64 %.sroa.2.0.insert.ext.i, 32
  %.sroa.0.0.insert.ext.i = zext i32 %15 to i64
  %.sroa.0.0.insert.insert.i = or disjoint i64 %.sroa.2.0.insert.shift.i, %.sroa.0.0.insert.ext.i
  store i64 %.sroa.0.0.insert.insert.i, ptr %3, align 8
  %19 = call noundef ptr @_ZNK8QToolBar8actionAtERK6QPoint(ptr noundef nonnull align 8 dereferenceable(40) %0, ptr noundef nonnull align 4 dereferenceable(8) %3)
  %.not26 = icmp eq ptr %19, null
  br i1 %.not26, label %29, label %20

20:                                               ; preds = %11
  %21 = call noundef ptr @_ZNK8QToolBar15widgetForActionEP7QAction(ptr noundef nonnull align 8 dereferenceable(40) %0, ptr noundef nonnull %19)
  %.not27 = icmp eq ptr %21, null
  br i1 %.not27, label %29, label %22

22:                                               ; preds = %20
  store i8 0, ptr %4, align 1
  call void @_ZNK7QObject8propertyEPKc(ptr dead_on_unwind nonnull writable sret(%class.QVariant) align 8 %5, ptr noundef nonnull align 8 dereferenceable(16) %21, ptr noundef nonnull @.str.1)
  %23 = invoke noundef i32 @_ZNK8QVariant5toIntEPb(ptr noundef nonnull align 8 dereferenceable(32) %5, ptr noundef nonnull %4)
          to label %24 unwind label %27

24:                                               ; preds = %22
  call void @_ZN8QVariantD1Ev(ptr noundef nonnull align 8 dereferenceable(32) %5) #15
  %25 = load i8, ptr %4, align 1
  %26 = and i8 %25, 1
  %.not28 = icmp eq i8 %26, 0
  br i1 %.not28, label %.sink.split, label %29

27:                                               ; preds = %22
  %28 = landingpad { ptr, i32 }
          cleanup
  call void @_ZN8QVariantD1Ev(ptr noundef nonnull align 8 dereferenceable(32) %5) #15
  resume { ptr, i32 } %28

29:                                               ; preds = %20, %24, %11
  %30 = call noundef ptr @_ZNK10QDropEvent6sourceEv(ptr noundef nonnull align 8 dereferenceable(64) %1)
  %31 = icmp eq ptr %30, %0
  br i1 %31, label %32, label %33

32:                                               ; preds = %29
  call void @_ZN10QDropEvent13setDropActionEN2Qt10DropActionE(ptr noundef nonnull align 8 dereferenceable(64) %1, i32 noundef 2)
  br label %.sink.split

33:                                               ; preds = %29
  %34 = getelementptr inbounds i8, ptr %1, i64 48
  %35 = load i32, ptr %34, align 8
  %36 = getelementptr inbounds i8, ptr %1, i64 44
  store i32 %35, ptr %36, align 4
  br label %.sink.split

37:                                               ; preds = %9
  %38 = load ptr, ptr %7, align 8
  %39 = load ptr, ptr %38, align 8
  %40 = getelementptr inbounds i8, ptr %39, i64 96
  %41 = load ptr, ptr %40, align 8
  %42 = tail call noundef zeroext i1 %41(ptr noundef nonnull align 8 dereferenceable(16) %38, ptr noundef nonnull align 8 dereferenceable(24) @_ZN17WiresharkMimeData21DisplayFilterMimeTypeE)
  br i1 %42, label %43, label %.sink.split

43:                                               ; preds = %37
  %44 = tail call noundef ptr @_ZNK10QDropEvent6sourceEv(ptr noundef nonnull align 8 dereferenceable(64) %1)
  %.not25 = icmp eq ptr %44, %0
  br i1 %.not25, label %46, label %45

45:                                               ; preds = %43
  tail call void @_ZN10QDropEvent13setDropActionEN2Qt10DropActionE(ptr noundef nonnull align 8 dereferenceable(64) %1, i32 noundef 1)
  br label %.sink.split

46:                                               ; preds = %43
  %47 = getelementptr inbounds i8, ptr %1, i64 48
  %48 = load i32, ptr %47, align 8
  %49 = getelementptr inbounds i8, ptr %1, i64 44
  store i32 %48, ptr %49, align 4
  br label %.sink.split

.sink.split:                                      ; preds = %37, %24, %33, %32, %45, %46
  %.sink = phi i8 [ 1, %46 ], [ 1, %45 ], [ 1, %32 ], [ 1, %33 ], [ 0, %24 ], [ 0, %37 ]
  %50 = getelementptr inbounds i8, ptr %1, i64 12
  store i8 %.sink, ptr %50, align 4
  br label %51

51:                                               ; preds = %.sink.split, %2, %6
  ret void
}